target datalayout = "e-m:e-p270:32:32-p271:32:32-p272:64:64-i64:64-i128:128-f80:128-n8:16:32:64-S128"
target triple = "x86_64-pc-linux-gnu"

%struct.mq = type { ptr, i32, i32, ptr, ptr, i64, ptr, i64, ptr, i64, ptr, i8, ptr, ptr, [10 x %struct.mq_item] }
%struct.mq_item = type { i32, i64, i64 }
%struct.mcclellan = type { i16, i32, i16, i16, i32, i32, i32, i16, i16, i16, i16, i8, i8, i8, i8, [256 x i8], i32, i32, i32, i32 }
%struct.unaligned = type { i16 }
%struct.gough_som_info = type { [1 x i64] }
%struct.gough_info = type { i32, i32, i32, i8 }
%struct.unaligned.7 = type { i32 }
%struct.unaligned.8 = type { i64 }

; Function Attrs: alwaysinline nounwind uwtable
define internal void @unaligned_store_u64a(ptr noundef %0, i64 noundef %1) #2 {
  %3 = alloca ptr, align 8
  %4 = alloca i64, align 8
  %5 = alloca ptr, align 8
  store ptr %0, ptr %3, align 8
  store i64 %1, ptr %4, align 8
  call void @llvm.lifetime.start.p0(i64 8, ptr %5) #10
  %6 = load ptr, ptr %3, align 8
  store ptr %6, ptr %5, align 8
  %7 = load i64, ptr %4, align 8
  %8 = load ptr, ptr %5, align 8
  %9 = getelementptr inbounds nuw %struct.unaligned.8, ptr %8, i32 0, i32 0
  store i64 %7, ptr %9, align 1
  call void @llvm.lifetime.end.p0(i64 8, ptr %5) #10
  ret void
}

; Function Attrs: alwaysinline nounwind uwtable
define internal void @unaligned_store_u32(ptr noundef %0, i32 noundef %1) #2 {
  %3 = alloca ptr, align 8
  %4 = alloca i32, align 4
  %5 = alloca ptr, align 8
  store ptr %0, ptr %3, align 8
  store i32 %1, ptr %4, align 4
  call void @llvm.lifetime.start.p0(i64 8, ptr %5) #10
  %6 = load ptr, ptr %3, align 8
  store ptr %6, ptr %5, align 8
  %7 = load i32, ptr %4, align 4
  %8 = load ptr, ptr %5, align 8
  %9 = getelementptr inbounds nuw %struct.unaligned.7, ptr %8, i32 0, i32 0
  store i32 %7, ptr %9, align 1
  call void @llvm.lifetime.end.p0(i64 8, ptr %5) #10
  ret void
}

; Function Attrs: alwaysinline nounwind uwtable
define internal void @compressSomValue(i32 noundef %0, i64 noundef %1, ptr noundef %2, i32 noundef %3, i64 noundef %4) #2 {
  %6 = alloca i32, align 4
  %7 = alloca i64, align 8
  %8 = alloca ptr, align 8
  %9 = alloca i32, align 4
  %10 = alloca i64, align 8
  %11 = alloca ptr, align 8
  %12 = alloca i64, align 8
  store i32 %0, ptr %6, align 4
  store i64 %1, ptr %7, align 8
  store ptr %2, ptr %8, align 8
  store i32 %3, ptr %9, align 4
  store i64 %4, ptr %10, align 8
  call void @llvm.lifetime.start.p0(i64 8, ptr %11) #10
  %13 = load ptr, ptr %8, align 8
  %14 = load i32, ptr %9, align 4
  %15 = load i32, ptr %6, align 4
  %16 = mul i32 %14, %15
  %17 = zext i32 %16 to i64
  %18 = getelementptr inbounds nuw i8, ptr %13, i64 %17
  store ptr %18, ptr %11, align 8
  call void @llvm.lifetime.start.p0(i64 8, ptr %12) #10
  %19 = load i64, ptr %7, align 8
  %20 = load i64, ptr %10, align 8
  %21 = sub i64 %19, %20
  store i64 %21, ptr %12, align 8
  %22 = load i32, ptr %6, align 4
  switch i32 %22, label %46 [
    i32 2, label %23
    i32 4, label %31
    i32 8, label %39
  ]

23:                                               ; preds = %5
  %24 = load i64, ptr %12, align 8
  %25 = icmp uge i64 %24, 65535
  br i1 %25, label %26, label %27

26:                                               ; preds = %23
  store i64 -1, ptr %12, align 8
  br label %27

27:                                               ; preds = %26, %23
  %28 = load ptr, ptr %11, align 8
  %29 = load i64, ptr %12, align 8
  %30 = trunc i64 %29 to i16
  call void @unaligned_store_u16(ptr noundef %28, i16 noundef zeroext %30)
  br label %47

31:                                               ; preds = %5
  %32 = load i64, ptr %12, align 8
  %33 = icmp uge i64 %32, 4294967295
  br i1 %33, label %34, label %35

34:                                               ; preds = %31
  store i64 -1, ptr %12, align 8
  br label %35

35:                                               ; preds = %34, %31
  %36 = load ptr, ptr %11, align 8
  %37 = load i64, ptr %12, align 8
  %38 = trunc i64 %37 to i32
  call void @unaligned_store_u32(ptr noundef %36, i32 noundef %38)
  br label %47

39:                                               ; preds = %5
  %40 = load i64, ptr %12, align 8
  %41 = icmp uge i64 %40, -1
  br i1 %41, label %42, label %43

42:                                               ; preds = %39
  store i64 -1, ptr %12, align 8
  br label %43

43:                                               ; preds = %42, %39
  %44 = load ptr, ptr %11, align 8
  %45 = load i64, ptr %12, align 8
  call void @unaligned_store_u64a(ptr noundef %44, i64 noundef %45)
  br label %47

46:                                               ; preds = %5
  br label %47

47:                                               ; preds = %46, %43, %35, %27
  call void @llvm.lifetime.end.p0(i64 8, ptr %12) #10
  call void @llvm.lifetime.end.p0(i64 8, ptr %11) #10
  ret void
}

; Function Attrs: alwaysinline nounwind uwtable
define internal ptr @get_gough(ptr noundef %0) #2 {
  %2 = alloca ptr, align 8
  %3 = alloca ptr, align 8
  store ptr %0, ptr %2, align 8
  call void @llvm.lifetime.start.p0(i64 8, ptr %3) #10
  %4 = load ptr, ptr %2, align 8
  %5 = getelementptr inbounds i8, ptr %4, i64 -64
  store ptr %5, ptr %3, align 8
  %6 = load ptr, ptr %3, align 8
  %7 = load ptr, ptr %2, align 8
  %8 = getelementptr inbounds nuw %struct.mcclellan, ptr %7, i32 0, i32 18
  %9 = load i32, ptr %8, align 4
  %10 = zext i32 %9 to i64
  %11 = getelementptr inbounds nuw i8, ptr %6, i64 %10
  call void @llvm.lifetime.end.p0(i64 8, ptr %3) #10
  ret ptr %11
}

; Function Attrs: alwaysinline nounwind uwtable
define internal void @compSomSpace(ptr noundef %0, ptr noundef %1, ptr noundef %2, i64 noundef %3) #2 {
  %5 = alloca ptr, align 8
  %6 = alloca ptr, align 8
  %7 = alloca ptr, align 8
  %8 = alloca i64, align 8
  %9 = alloca ptr, align 8
  %10 = alloca ptr, align 8
  %11 = alloca i32, align 4
  %12 = alloca i32, align 4
  %13 = alloca i32, align 4
  store ptr %0, ptr %5, align 8
  store ptr %1, ptr %6, align 8
  store ptr %2, ptr %7, align 8
  store i64 %3, ptr %8, align 8
  call void @llvm.lifetime.start.p0(i64 8, ptr %9) #10
  %14 = load ptr, ptr %5, align 8
  %15 = getelementptr inbounds nuw i8, ptr %14, i64 64
  store ptr %15, ptr %9, align 8
  call void @llvm.lifetime.start.p0(i64 8, ptr %10) #10
  %16 = load ptr, ptr %9, align 8
  %17 = call ptr @get_gough(ptr noundef %16)
  store ptr %17, ptr %10, align 8
  call void @llvm.lifetime.start.p0(i64 4, ptr %11) #10
  %18 = load ptr, ptr %10, align 8
  %19 = getelementptr inbounds nuw %struct.gough_info, ptr %18, i32 0, i32 2
  %20 = load i32, ptr %19, align 4
  store i32 %20, ptr %11, align 4
  call void @llvm.lifetime.start.p0(i64 4, ptr %12) #10
  %21 = load ptr, ptr %10, align 8
  %22 = getelementptr inbounds nuw %struct.gough_info, ptr %21, i32 0, i32 3
  %23 = load i8, ptr %22, align 4
  %24 = zext i8 %23 to i32
  store i32 %24, ptr %12, align 4
  call void @llvm.lifetime.start.p0(i64 4, ptr %13) #10
  store i32 0, ptr %13, align 4
  br label %25

25:                                               ; preds = %41, %4
  %26 = load i32, ptr %13, align 4
  %27 = load i32, ptr %11, align 4
  %28 = icmp ult i32 %26, %27
  br i1 %28, label %30, label %29

29:                                               ; preds = %25
  call void @llvm.lifetime.end.p0(i64 4, ptr %13) #10
  br label %44

30:                                               ; preds = %25
  %31 = load i32, ptr %12, align 4
  %32 = load i64, ptr %8, align 8
  %33 = load ptr, ptr %6, align 8
  %34 = load i32, ptr %13, align 4
  %35 = load ptr, ptr %7, align 8
  %36 = getelementptr inbounds nuw %struct.gough_som_info, ptr %35, i32 0, i32 0
  %37 = load i32, ptr %13, align 4
  %38 = zext i32 %37 to i64
  %39 = getelementptr inbounds nuw [1 x i64], ptr %36, i64 0, i64 %38
  %40 = load i64, ptr %39, align 8
  call void @compressSomValue(i32 noundef %31, i64 noundef %32, ptr noundef %33, i32 noundef %34, i64 noundef %40)
  br label %41

41:                                               ; preds = %30
  %42 = load i32, ptr %13, align 4
  %43 = add i32 %42, 1
  store i32 %43, ptr %13, align 4
  br label %25

44:                                               ; preds = %29
  call void @llvm.lifetime.end.p0(i64 4, ptr %12) #10
  call void @llvm.lifetime.end.p0(i64 4, ptr %11) #10
  call void @llvm.lifetime.end.p0(i64 8, ptr %10) #10
  call void @llvm.lifetime.end.p0(i64 8, ptr %9) #10
  ret void
}

; Function Attrs: alwaysinline nounwind uwtable
define internal ptr @getSomInfoConst(ptr noundef %0) #2 {
  %2 = alloca ptr, align 8
  store ptr %0, ptr %2, align 8
  %3 = load ptr, ptr %2, align 8
  %4 = getelementptr inbounds i8, ptr %3, i64 16
  ret ptr %4
}

; Function Attrs: alwaysinline nounwind uwtable
define internal void @unaligned_store_u16(ptr noundef %0, i16 noundef zeroext %1) #2 {
  %3 = alloca ptr, align 8
  %4 = alloca i16, align 2
  %5 = alloca ptr, align 8
  store ptr %0, ptr %3, align 8
  store i16 %1, ptr %4, align 2
  call void @llvm.lifetime.start.p0(i64 8, ptr %5) #10
  %6 = load ptr, ptr %3, align 8
  store ptr %6, ptr %5, align 8
  %7 = load i16, ptr %4, align 2
  %8 = load ptr, ptr %5, align 8
  %9 = getelementptr inbounds nuw %struct.unaligned, ptr %8, i32 0, i32 0
  store i16 %7, ptr %9, align 1
  call void @llvm.lifetime.end.p0(i64 8, ptr %5) #10
  ret void
}

; Function Attrs: nounwind uwtable
define hidden signext i8 @nfaExecGough16_queueCompressState(ptr noundef %0, ptr noundef %1, i64 noundef %2) #0 {
  %4 = alloca ptr, align 8
  %5 = alloca ptr, align 8
  %6 = alloca i64, align 8
  %7 = alloca ptr, align 8
  %8 = alloca ptr, align 8
  store ptr %0, ptr %4, align 8
  store ptr %1, ptr %5, align 8
  store i64 %2, ptr %6, align 8
  call void @llvm.lifetime.start.p0(i64 8, ptr %7) #10
  %9 = load ptr, ptr %5, align 8
  %10 = getelementptr inbounds nuw %struct.mq, ptr %9, i32 0, i32 4
  %11 = load ptr, ptr %10, align 8
  store ptr %11, ptr %7, align 8
  call void @llvm.lifetime.start.p0(i64 8, ptr %8) #10
  %12 = load ptr, ptr %5, align 8
  %13 = getelementptr inbounds nuw %struct.mq, ptr %12, i32 0, i32 3
  %14 = load ptr, ptr %13, align 8
  store ptr %14, ptr %8, align 8
  %15 = load ptr, ptr %7, align 8
  %16 = load ptr, ptr %8, align 8
  %17 = load i16, ptr %16, align 2
  call void @unaligned_store_u16(ptr noundef %15, i16 noundef zeroext %17)
  %18 = load ptr, ptr %4, align 8
  %19 = load ptr, ptr %7, align 8
  %20 = getelementptr inbounds i8, ptr %19, i64 2
  %21 = load ptr, ptr %8, align 8
  %22 = call ptr @getSomInfoConst(ptr noundef %21)
  %23 = load ptr, ptr %5, align 8
  %24 = getelementptr inbounds nuw %struct.mq, ptr %23, i32 0, i32 5
  %25 = load i64, ptr %24, align 8
  %26 = load i64, ptr %6, align 8
  %27 = add i64 %25, %26
  call void @compSomSpace(ptr noundef %18, ptr noundef %20, ptr noundef %22, i64 noundef %27)
  call void @llvm.lifetime.end.p0(i64 8, ptr %8) #10
  call void @llvm.lifetime.end.p0(i64 8, ptr %7) #10
  ret i8 0
}