; Function Attrs: nofree norecurse nosync nounwind memory(readwrite, inaccessiblemem: none) uwtable
define hidden noundef signext i8 @nfaExecGough16_queueCompressState(ptr noundef readonly captures(none) %0, ptr noundef readonly captures(none) %1, i64 noundef %2) local_unnamed_addr #6 {
  %4 = getelementptr inbounds nuw i8, ptr %1, i64 24
  %5 = load ptr, ptr %4, align 8
  %6 = getelementptr inbounds nuw i8, ptr %1, i64 16
  %7 = load ptr, ptr %6, align 8
  %8 = load i16, ptr %7, align 2
  store i16 %8, ptr %5, align 1
  %9 = getelementptr inbounds nuw i8, ptr %5, i64 2
  %10 = getelementptr inbounds nuw i8, ptr %7, i64 16
  %11 = getelementptr inbounds nuw i8, ptr %1, i64 32
  %12 = load i64, ptr %11, align 8
  %13 = add i64 %12, %2
  %14 = getelementptr inbounds nuw i8, ptr %0, i64 364
  %15 = load i32, ptr %14, align 4
  %16 = zext i32 %15 to i64
  %17 = getelementptr inbounds nuw i8, ptr %0, i64 %16
  %18 = getelementptr inbounds nuw i8, ptr %17, i64 8
  %19 = load i32, ptr %18, align 4
  %20 = getelementptr inbounds nuw i8, ptr %17, i64 12
  %21 = load i8, ptr %20, align 4
  %22 = zext i8 %21 to i32
  %.not = icmp eq i32 %19, 0
  br i1 %.not, label %compSomSpace.exit, label %.lr.ph

.lr.ph:                                           ; preds = %3
  switch i8 %21, label %compSomSpace.exit [
    i8 2, label %compressSomValue.exit.us.preheader
    i8 4, label %compressSomValue.exit.us12.preheader
    i8 8, label %compressSomValue.exit.us16.preheader
  ]

compressSomValue.exit.us16.preheader:             ; preds = %.lr.ph
  %wide.trip.count = zext i32 %19 to i64
  br label %compressSomValue.exit.us16

compressSomValue.exit.us12.preheader:             ; preds = %.lr.ph
  %wide.trip.count24 = zext i32 %19 to i64
  br label %compressSomValue.exit.us12

compressSomValue.exit.us.preheader:               ; preds = %.lr.ph
  %wide.trip.count29 = zext i32 %19 to i64
  br label %compressSomValue.exit.us

compressSomValue.exit.us:                         ; preds = %compressSomValue.exit.us.preheader, %compressSomValue.exit.us
  %indvars.iv26 = phi i64 [ 0, %compressSomValue.exit.us.preheader ], [ %indvars.iv.next27, %compressSomValue.exit.us ]
  %23 = getelementptr inbounds nuw [1 x i64], ptr %10, i64 0, i64 %indvars.iv26
  %24 = load i64, ptr %23, align 8
  %25 = trunc nuw i64 %indvars.iv26 to i32
  %26 = mul i32 %25, %22
  %27 = zext i32 %26 to i64
  %28 = getelementptr inbounds nuw i8, ptr %9, i64 %27
  %29 = sub i64 %13, %24
  %30 = icmp ugt i64 %29, 65534
  %31 = trunc i64 %29 to i16
  %32 = select i1 %30, i16 -1, i16 %31
  store i16 %32, ptr %28, align 1
  %indvars.iv.next27 = add nuw nsw i64 %indvars.iv26, 1
  %exitcond30.not = icmp eq i64 %indvars.iv.next27, %wide.trip.count29
  br i1 %exitcond30.not, label %compSomSpace.exit, label %compressSomValue.exit.us

compressSomValue.exit.us12:                       ; preds = %compressSomValue.exit.us12.preheader, %compressSomValue.exit.us12
  %indvars.iv21 = phi i64 [ 0, %compressSomValue.exit.us12.preheader ], [ %indvars.iv.next22, %compressSomValue.exit.us12 ]
  %33 = getelementptr inbounds nuw [1 x i64], ptr %10, i64 0, i64 %indvars.iv21
  %34 = load i64, ptr %33, align 8
  %35 = trunc nuw i64 %indvars.iv21 to i32
  %36 = mul i32 %35, %22
  %37 = zext i32 %36 to i64
  %38 = getelementptr inbounds nuw i8, ptr %9, i64 %37
  %39 = sub i64 %13, %34
  %40 = icmp ugt i64 %39, 4294967294
  %41 = trunc i64 %39 to i32
  %42 = select i1 %40, i32 -1, i32 %41
  store i32 %42, ptr %38, align 1
  %indvars.iv.next22 = add nuw nsw i64 %indvars.iv21, 1
  %exitcond25.not = icmp eq i64 %indvars.iv.next22, %wide.trip.count24
  br i1 %exitcond25.not, label %compSomSpace.exit, label %compressSomValue.exit.us12

compressSomValue.exit.us16:                       ; preds = %compressSomValue.exit.us16.preheader, %compressSomValue.exit.us16
  %indvars.iv = phi i64 [ 0, %compressSomValue.exit.us16.preheader ], [ %indvars.iv.next, %compressSomValue.exit.us16 ]
  %43 = getelementptr inbounds nuw [1 x i64], ptr %10, i64 0, i64 %indvars.iv
  %44 = load i64, ptr %43, align 8
  %45 = trunc nuw i64 %indvars.iv to i32
  %46 = mul i32 %45, %22
  %47 = zext i32 %46 to i64
  %48 = getelementptr inbounds nuw i8, ptr %9, i64 %47
  %49 = sub i64 %13, %44
  store i64 %49, ptr %48, align 1
  %indvars.iv.next = add nuw nsw i64 %indvars.iv, 1
  %exitcond.not = icmp eq i64 %indvars.iv.next, %wide.trip.count
  br i1 %exitcond.not, label %compSomSpace.exit, label %compressSomValue.exit.us16

compSomSpace.exit:                                ; preds = %compressSomValue.exit.us16, %compressSomValue.exit.us12, %compressSomValue.exit.us, %.lr.ph, %3
  ret i8 0
}